target datalayout = "e-m:e-p270:32:32-p271:32:32-p272:64:64-i64:64-i128:128-f80:128-n8:16:32:64-S128"
target triple = "x86_64-pc-linux-gnu"

; Function Attrs: mustprogress nounwind uwtable
define internal noundef ptr @_ZL28mi_heap_realloc_zero_alignedP9mi_heap_sPvmmb(ptr noundef %0, ptr noundef %1, i64 noundef %2, i64 noundef %3, i1 noundef zeroext %4) #5 {
  %6 = alloca ptr, align 8
  %7 = alloca ptr, align 8
  %8 = alloca ptr, align 8
  %9 = alloca i64, align 8
  %10 = alloca i64, align 8
  %11 = alloca i8, align 1
  %12 = alloca i64, align 8
  store ptr %0, ptr %7, align 8, !tbaa !42
  store ptr %1, ptr %8, align 8, !tbaa !8
  store i64 %2, ptr %9, align 8, !tbaa !18
  store i64 %3, ptr %10, align 8, !tbaa !18
  %13 = zext i1 %4 to i8
  store i8 %13, ptr %11, align 1, !tbaa !23
  %14 = load i64, ptr %10, align 8, !tbaa !18
  %15 = icmp ule i64 %14, 8
  br i1 %15, label %16, label %23

16:                                               ; preds = %5
  %17 = load ptr, ptr %7, align 8, !tbaa !42
  %18 = load ptr, ptr %8, align 8, !tbaa !8
  %19 = load i64, ptr %9, align 8, !tbaa !18
  %20 = load i8, ptr %11, align 1, !tbaa !23, !range !25, !noundef !26
  %21 = trunc i8 %20 to i1
  %22 = call noundef ptr @_Z21_mi_heap_realloc_zeroP9mi_heap_sPvmb(ptr noundef %17, ptr noundef %18, i64 noundef %19, i1 noundef zeroext %21) #19
  store ptr %22, ptr %6, align 8
  br label %36

23:                                               ; preds = %5
  call void @llvm.lifetime.start.p0(i64 8, ptr %12) #19
  %24 = load ptr, ptr %8, align 8, !tbaa !8
  %25 = ptrtoint ptr %24 to i64
  %26 = load i64, ptr %10, align 8, !tbaa !18
  %27 = urem i64 %25, %26
  store i64 %27, ptr %12, align 8, !tbaa !18
  %28 = load ptr, ptr %7, align 8, !tbaa !42
  %29 = load ptr, ptr %8, align 8, !tbaa !8
  %30 = load i64, ptr %9, align 8, !tbaa !18
  %31 = load i64, ptr %10, align 8, !tbaa !18
  %32 = load i64, ptr %12, align 8, !tbaa !18
  %33 = load i8, ptr %11, align 1, !tbaa !23, !range !25, !noundef !26
  %34 = trunc i8 %33 to i1
  %35 = call noundef ptr @_ZL31mi_heap_realloc_zero_aligned_atP9mi_heap_sPvmmmb(ptr noundef %28, ptr noundef %29, i64 noundef %30, i64 noundef %31, i64 noundef %32, i1 noundef zeroext %34) #19
  store ptr %35, ptr %6, align 8
  call void @llvm.lifetime.end.p0(i64 8, ptr %12) #19
  br label %36

36:                                               ; preds = %23, %16
  %37 = load ptr, ptr %6, align 8
  ret ptr %37
}

; Function Attrs: mustprogress nounwind uwtable
define ptr @mi_heap_realloc_aligned(ptr noundef %0, ptr noundef %1, i64 noundef %2, i64 noundef %3) #5 {
  %5 = alloca ptr, align 8
  %6 = alloca ptr, align 8
  %7 = alloca i64, align 8
  %8 = alloca i64, align 8
  store ptr %0, ptr %5, align 8, !tbaa !42
  store ptr %1, ptr %6, align 8, !tbaa !8
  store i64 %2, ptr %7, align 8, !tbaa !18
  store i64 %3, ptr %8, align 8, !tbaa !18
  %9 = load ptr, ptr %5, align 8, !tbaa !42
  %10 = load ptr, ptr %6, align 8, !tbaa !8
  %11 = load i64, ptr %7, align 8, !tbaa !18
  %12 = load i64, ptr %8, align 8, !tbaa !18
  %13 = call noundef ptr @_ZL28mi_heap_realloc_zero_alignedP9mi_heap_sPvmmb(ptr noundef %9, ptr noundef %10, i64 noundef %11, i64 noundef %12, i1 noundef zeroext false) #19
  ret ptr %13
}