; Function Attrs: mustprogress nounwind uwtable
define noundef ptr @mi_heap_realloc_aligned(ptr noundef %0, ptr noundef %1, i64 noundef %2, i64 noundef %3) local_unnamed_addr #3 {
  %5 = icmp ult i64 %3, 9
  br i1 %5, label %6, label %8

6:                                                ; preds = %4
  %7 = tail call noundef ptr @_Z21_mi_heap_realloc_zeroP9mi_heap_sPvmb(ptr noundef %0, ptr noundef %1, i64 noundef %2, i1 noundef zeroext false) #55
  br label %_ZL28mi_heap_realloc_zero_alignedP9mi_heap_sPvmmb.exit

8:                                                ; preds = %4
  %9 = ptrtoint ptr %1 to i64
  %10 = urem i64 %9, %3
  %11 = tail call fastcc noundef ptr @_ZL31mi_heap_realloc_zero_aligned_atP9mi_heap_sPvmmmb(ptr noundef %0, ptr noundef %1, i64 noundef %2, i64 noundef %3, i64 noundef %10, i1 noundef zeroext false) #55
  br label %_ZL28mi_heap_realloc_zero_alignedP9mi_heap_sPvmmb.exit

_ZL28mi_heap_realloc_zero_alignedP9mi_heap_sPvmmb.exit: ; preds = %6, %8
  %.0.i = phi ptr [ %7, %6 ], [ %11, %8 ]
  ret ptr %.0.i
}